target datalayout = "e-m:e-p270:32:32-p271:32:32-p272:64:64-i64:64-i128:128-f80:128-n8:16:32:64-S128"
target triple = "x86_64-pc-linux-gnu"

%struct._zval_struct = type { %union._zend_value, %union.anon, %union.anon.2 }
%union._zend_value = type { i64 }
%union.anon = type { i32 }
%union.anon.2 = type { i32 }
%struct._zend_refcounted_h = type { i32, %union.anon.3 }
%union.anon.3 = type { i32 }
%struct._zend_object = type { %struct._zend_refcounted_h, i32, ptr, ptr, ptr, [1 x %struct._zval_struct] }
%struct._php_libxml_node_object = type { ptr, ptr, %struct._zend_object }
%struct._php_libxml_ref_obj = type { ptr, ptr, %struct.php_libxml_cache_tag, i32, i8 }
%struct.php_libxml_cache_tag = type { i64 }

; Function Attrs: nounwind uwtable
define i32 @php_libxml_increment_doc_ref(ptr noundef %0, ptr noundef %1) #0 {
  %3 = alloca ptr, align 8
  %4 = alloca ptr, align 8
  %5 = alloca i32, align 4
  store ptr %0, ptr %3, align 8
  store ptr %1, ptr %4, align 8
  store i32 -1, ptr %5, align 4
  %6 = load ptr, ptr %3, align 8
  %7 = getelementptr inbounds %struct._php_libxml_node_object, ptr %6, i32 0, i32 1
  %8 = load ptr, ptr %7, align 8
  %9 = icmp ne ptr %8, null
  br i1 %9, label %10, label %22

10:                                               ; preds = %2
  %11 = load ptr, ptr %3, align 8
  %12 = getelementptr inbounds %struct._php_libxml_node_object, ptr %11, i32 0, i32 1
  %13 = load ptr, ptr %12, align 8
  %14 = getelementptr inbounds %struct._php_libxml_ref_obj, ptr %13, i32 0, i32 3
  %15 = load i32, ptr %14, align 8
  %16 = add nsw i32 %15, 1
  store i32 %16, ptr %14, align 8
  %17 = load ptr, ptr %3, align 8
  %18 = getelementptr inbounds %struct._php_libxml_node_object, ptr %17, i32 0, i32 1
  %19 = load ptr, ptr %18, align 8
  %20 = getelementptr inbounds %struct._php_libxml_ref_obj, ptr %19, i32 0, i32 3
  %21 = load i32, ptr %20, align 8
  store i32 %21, ptr %5, align 4
  br label %53

22:                                               ; preds = %2
  %23 = load ptr, ptr %4, align 8
  %24 = icmp ne ptr %23, null
  br i1 %24, label %25, label %52

25:                                               ; preds = %22
  store i32 1, ptr %5, align 4
  %26 = call noalias ptr @_emalloc_32()
  %27 = load ptr, ptr %3, align 8
  %28 = getelementptr inbounds %struct._php_libxml_node_object, ptr %27, i32 0, i32 1
  store ptr %26, ptr %28, align 8
  %29 = load ptr, ptr %4, align 8
  %30 = load ptr, ptr %3, align 8
  %31 = getelementptr inbounds %struct._php_libxml_node_object, ptr %30, i32 0, i32 1
  %32 = load ptr, ptr %31, align 8
  %33 = getelementptr inbounds %struct._php_libxml_ref_obj, ptr %32, i32 0, i32 0
  store ptr %29, ptr %33, align 8
  %34 = load i32, ptr %5, align 4
  %35 = load ptr, ptr %3, align 8
  %36 = getelementptr inbounds %struct._php_libxml_node_object, ptr %35, i32 0, i32 1
  %37 = load ptr, ptr %36, align 8
  %38 = getelementptr inbounds %struct._php_libxml_ref_obj, ptr %37, i32 0, i32 3
  store i32 %34, ptr %38, align 8
  %39 = load ptr, ptr %3, align 8
  %40 = getelementptr inbounds %struct._php_libxml_node_object, ptr %39, i32 0, i32 1
  %41 = load ptr, ptr %40, align 8
  %42 = getelementptr inbounds %struct._php_libxml_ref_obj, ptr %41, i32 0, i32 1
  store ptr null, ptr %42, align 8
  %43 = load ptr, ptr %3, align 8
  %44 = getelementptr inbounds %struct._php_libxml_node_object, ptr %43, i32 0, i32 1
  %45 = load ptr, ptr %44, align 8
  %46 = getelementptr inbounds %struct._php_libxml_ref_obj, ptr %45, i32 0, i32 2
  %47 = getelementptr inbounds %struct.php_libxml_cache_tag, ptr %46, i32 0, i32 0
  store i64 1, ptr %47, align 8
  %48 = load ptr, ptr %3, align 8
  %49 = getelementptr inbounds %struct._php_libxml_node_object, ptr %48, i32 0, i32 1
  %50 = load ptr, ptr %49, align 8
  %51 = getelementptr inbounds %struct._php_libxml_ref_obj, ptr %50, i32 0, i32 4
  store i8 0, ptr %51, align 4
  br label %52

52:                                               ; preds = %25, %22
  br label %53

53:                                               ; preds = %52, %10
  %54 = load i32, ptr %5, align 4
  ret i32 %54
}