; Function Attrs: nounwind uwtable
define i32 @php_libxml_increment_doc_ref(ptr nocapture noundef %0, ptr noundef %1) local_unnamed_addr #0 {
  %3 = getelementptr inbounds i8, ptr %0, i64 8
  %4 = load ptr, ptr %3, align 8
  %.not = icmp eq ptr %4, null
  br i1 %.not, label %12, label %5

5:                                                ; preds = %2
  %6 = getelementptr inbounds i8, ptr %4, i64 24
  %7 = load i32, ptr %6, align 8
  %8 = add nsw i32 %7, 1
  store i32 %8, ptr %6, align 8
  %9 = load ptr, ptr %3, align 8
  %10 = getelementptr inbounds i8, ptr %9, i64 24
  %11 = load i32, ptr %10, align 8
  br label %19

12:                                               ; preds = %2
  %.not14 = icmp eq ptr %1, null
  br i1 %.not14, label %19, label %13

13:                                               ; preds = %12
  %14 = tail call noalias ptr @_emalloc_32() #17
  store ptr %14, ptr %3, align 8
  store ptr %1, ptr %14, align 8
  %15 = getelementptr inbounds i8, ptr %14, i64 24
  store i32 1, ptr %15, align 8
  %16 = getelementptr inbounds i8, ptr %14, i64 8
  store ptr null, ptr %16, align 8
  %17 = getelementptr inbounds i8, ptr %14, i64 16
  store i64 1, ptr %17, align 8
  %18 = getelementptr inbounds i8, ptr %14, i64 28
  store i8 0, ptr %18, align 4
  br label %19

19:                                               ; preds = %12, %13, %5
  %.0 = phi i32 [ %11, %5 ], [ 1, %13 ], [ -1, %12 ]
  ret i32 %.0
}